; Function Attrs: mustprogress nounwind uwtable
define internal fastcc { i8, i64 } @_ZL18lowerSymbolOperandRKN4llvm14MachineOperandEPNS_8MCSymbolERKNS_10AsmPrinterE(ptr noundef nonnull readonly align 8 captures(none) dereferenceable(32) %0, ptr noundef %1, ptr %.72.val) unnamed_addr #0 {
  %3 = load i32, ptr %0, align 8
  %4 = and i32 %3, 255
  %5 = icmp eq i32 %4, 0
  %6 = lshr i32 %3, 8
  %7 = and i32 %6, 4095
  %8 = select i1 %5, i32 0, i32 %7
  switch i32 %8, label %9 [
    i32 0, label %25
    i32 1, label %10
    i32 3, label %11
    i32 4, label %12
    i32 5, label %13
    i32 6, label %14
    i32 7, label %15
    i32 8, label %16
    i32 9, label %17
    i32 10, label %18
    i32 11, label %19
    i32 12, label %20
    i32 13, label %21
    i32 14, label %22
    i32 15, label %23
    i32 16, label %24
  ]

9:                                                ; preds = %2
  unreachable

10:                                               ; preds = %2
  br label %25

11:                                               ; preds = %2
  br label %25

12:                                               ; preds = %2
  br label %25

13:                                               ; preds = %2
  br label %25

14:                                               ; preds = %2
  br label %25

15:                                               ; preds = %2
  br label %25

16:                                               ; preds = %2
  br label %25

17:                                               ; preds = %2
  br label %25

18:                                               ; preds = %2
  br label %25

19:                                               ; preds = %2
  br label %25

20:                                               ; preds = %2
  br label %25

21:                                               ; preds = %2
  br label %25

22:                                               ; preds = %2
  br label %25

23:                                               ; preds = %2
  br label %25

24:                                               ; preds = %2
  br label %25

25:                                               ; preds = %2, %24, %23, %22, %21, %20, %19, %18, %17, %16, %15, %14, %13, %12, %11, %10
  %.not16 = phi i1 [ false, %24 ], [ false, %23 ], [ false, %22 ], [ false, %21 ], [ false, %20 ], [ false, %19 ], [ false, %18 ], [ false, %17 ], [ false, %16 ], [ false, %15 ], [ false, %14 ], [ false, %13 ], [ false, %12 ], [ false, %11 ], [ false, %10 ], [ true, %2 ]
  %.015 = phi i32 [ 17, %24 ], [ 16, %23 ], [ 15, %22 ], [ 14, %21 ], [ 10, %20 ], [ 9, %19 ], [ 8, %18 ], [ 7, %17 ], [ 6, %16 ], [ 5, %15 ], [ 4, %14 ], [ 3, %13 ], [ 2, %12 ], [ 1, %11 ], [ 12, %10 ], [ %8, %2 ]
  %26 = tail call noundef ptr @_ZN4llvm15MCSymbolRefExpr6createEPKNS_8MCSymbolENS0_11VariantKindERNS_9MCContextENS_5SMLocE(ptr noundef %1, i16 noundef zeroext 0, ptr noundef nonnull align 8 dereferenceable(2432) %.72.val, ptr null) #16
  %27 = load i32, ptr %0, align 8
  %trunc = trunc i32 %27 to i8
  switch i8 %trunc, label %28 [
    i8 8, label %40
    i8 4, label %40
  ]

28:                                               ; preds = %25
  %29 = getelementptr inbounds nuw i8, ptr %0, i64 24
  %30 = load i32, ptr %29, align 8
  %31 = sext i32 %30 to i64
  %32 = shl nsw i64 %31, 32
  %33 = getelementptr inbounds nuw i8, ptr %0, i64 4
  %34 = load i32, ptr %33, align 4
  %35 = zext i32 %34 to i64
  %36 = or disjoint i64 %32, %35
  %.not = icmp eq i64 %36, 0
  br i1 %.not, label %40, label %37

37:                                               ; preds = %28
  %38 = tail call noundef ptr @_ZN4llvm14MCConstantExpr6createElRNS_9MCContextEbj(i64 noundef %36, ptr noundef nonnull align 8 dereferenceable(2432) %.72.val, i1 noundef zeroext false, i32 noundef 0) #16
  %39 = tail call noundef ptr @_ZN4llvm12MCBinaryExpr6createENS0_6OpcodeEPKNS_6MCExprES4_RNS_9MCContextENS_5SMLocE(i32 noundef 0, ptr noundef %26, ptr noundef %38, ptr noundef nonnull align 8 dereferenceable(2432) %.72.val, ptr null) #16
  br label %40

40:                                               ; preds = %25, %25, %37, %28
  %.0 = phi ptr [ %26, %25 ], [ %39, %37 ], [ %26, %28 ], [ %26, %25 ]
  br i1 %.not16, label %45, label %41

41:                                               ; preds = %40
  %42 = tail call noundef ptr @_ZN4llvm11RISCVMCExpr6createEPKNS_6MCExprENS0_11VariantKindERNS_9MCContextE(ptr noundef %.0, i32 noundef %.015, ptr noundef nonnull align 8 dereferenceable(2432) %.72.val) #16
  %43 = icmp eq ptr %42, null
  %44 = getelementptr inbounds nuw i8, ptr %42, i64 8
  %spec.select = select i1 %43, ptr null, ptr %44
  br label %45

45:                                               ; preds = %41, %40
  %.1 = phi ptr [ %spec.select, %41 ], [ %.0, %40 ]
  %.fca.1.load.cast.i = ptrtoint ptr %.1 to i64
  %.fca.1.insert.i = insertvalue { i8, i64 } { i8 5, i64 poison }, i64 %.fca.1.load.cast.i, 1
  ret { i8, i64 } %.fca.1.insert.i
}